target datalayout = "e-m:e-p270:32:32-p271:32:32-p272:64:64-i64:64-i128:128-f80:128-n8:16:32:64-S128"
target triple = "x86_64-pc-linux-gnu"

%struct.ItemPointerData = type { %struct.BlockIdData, i16 }
%struct.BlockIdData = type { i16, i16 }
%struct.PageHeaderData = type { %struct.PageXLogRecPtr, i16, i16, i16, i16, i16, i16, i32, [0 x %struct.ItemIdData] }
%struct.PageXLogRecPtr = type { i32, i32 }
%struct.ItemIdData = type { i32 }
%struct.HeapTupleHeaderData = type { %union.anon.1, %struct.ItemPointerData, i16, i16, i8, [0 x i8] }
%union.anon.1 = type { %struct.HeapTupleFields }
%struct.HeapTupleFields = type { i32, i32, %union.anon.2 }
%union.anon.2 = type { i32 }
%struct.HeapTupleFreeze = type { i32, i16, i16, i8, i8, i16 }

@LocalBufferBlockPointers = external global ptr, align 8
@BufferBlocks = external global ptr, align 8

; Function Attrs: inlinehint nounwind uwtable
define internal void @HeapTupleHeaderSetXvac(ptr noundef %0, i32 noundef %1) #3 {
  %3 = alloca ptr, align 8
  %4 = alloca i32, align 4
  store ptr %0, ptr %3, align 8
  store i32 %1, ptr %4, align 4
  %5 = load i32, ptr %4, align 4
  %6 = load ptr, ptr %3, align 8
  %7 = getelementptr inbounds nuw %struct.HeapTupleHeaderData, ptr %6, i32 0, i32 0
  %8 = getelementptr inbounds nuw %struct.HeapTupleFields, ptr %7, i32 0, i32 2
  store i32 %5, ptr %8, align 4
  ret void
}

; Function Attrs: inlinehint nounwind uwtable
define internal void @HeapTupleHeaderSetXmax(ptr noundef %0, i32 noundef %1) #3 {
  %3 = alloca ptr, align 8
  %4 = alloca i32, align 4
  store ptr %0, ptr %3, align 8
  store i32 %1, ptr %4, align 4
  %5 = load i32, ptr %4, align 4
  %6 = load ptr, ptr %3, align 8
  %7 = getelementptr inbounds nuw %struct.HeapTupleHeaderData, ptr %6, i32 0, i32 0
  %8 = getelementptr inbounds nuw %struct.HeapTupleFields, ptr %7, i32 0, i32 1
  store i32 %5, ptr %8, align 4
  ret void
}

; Function Attrs: inlinehint nounwind uwtable
define internal ptr @BufferGetBlock(i32 noundef %0) #3 {
  %2 = alloca ptr, align 8
  %3 = alloca i32, align 4
  store i32 %0, ptr %3, align 4
  %4 = load i32, ptr %3, align 4
  %5 = icmp slt i32 %4, 0
  br i1 %5, label %6, label %14

6:                                                ; preds = %1
  %7 = load ptr, ptr @LocalBufferBlockPointers, align 8
  %8 = load i32, ptr %3, align 4
  %9 = sub i32 0, %8
  %10 = sub i32 %9, 1
  %11 = sext i32 %10 to i64
  %12 = getelementptr inbounds ptr, ptr %7, i64 %11
  %13 = load ptr, ptr %12, align 8
  store ptr %13, ptr %2, align 8
  br label %21

14:                                               ; preds = %1
  %15 = load ptr, ptr @BufferBlocks, align 8
  %16 = load i32, ptr %3, align 4
  %17 = sub i32 %16, 1
  %18 = sext i32 %17 to i64
  %19 = mul i64 %18, 8192
  %20 = getelementptr inbounds nuw i8, ptr %15, i64 %19
  store ptr %20, ptr %2, align 8
  br label %21

21:                                               ; preds = %14, %6
  %22 = load ptr, ptr %2, align 8
  ret ptr %22
}

; Function Attrs: inlinehint nounwind uwtable
define internal void @heap_execute_freeze_tuple(ptr noundef %0, ptr noundef %1) #3 {
  %3 = alloca ptr, align 8
  %4 = alloca ptr, align 8
  store ptr %0, ptr %3, align 8
  store ptr %1, ptr %4, align 8
  %5 = load ptr, ptr %3, align 8
  %6 = load ptr, ptr %4, align 8
  %7 = getelementptr inbounds nuw %struct.HeapTupleFreeze, ptr %6, i32 0, i32 0
  %8 = load i32, ptr %7, align 4
  call void @HeapTupleHeaderSetXmax(ptr noundef %5, i32 noundef %8)
  %9 = load ptr, ptr %4, align 8
  %10 = getelementptr inbounds nuw %struct.HeapTupleFreeze, ptr %9, i32 0, i32 3
  %11 = load i8, ptr %10, align 4
  %12 = zext i8 %11 to i32
  %13 = and i32 %12, 2
  %14 = icmp ne i32 %13, 0
  br i1 %14, label %15, label %17

15:                                               ; preds = %2
  %16 = load ptr, ptr %3, align 8
  call void @HeapTupleHeaderSetXvac(ptr noundef %16, i32 noundef 2)
  br label %17

17:                                               ; preds = %15, %2
  %18 = load ptr, ptr %4, align 8
  %19 = getelementptr inbounds nuw %struct.HeapTupleFreeze, ptr %18, i32 0, i32 3
  %20 = load i8, ptr %19, align 4
  %21 = zext i8 %20 to i32
  %22 = and i32 %21, 4
  %23 = icmp ne i32 %22, 0
  br i1 %23, label %24, label %26

24:                                               ; preds = %17
  %25 = load ptr, ptr %3, align 8
  call void @HeapTupleHeaderSetXvac(ptr noundef %25, i32 noundef 0)
  br label %26

26:                                               ; preds = %24, %17
  %27 = load ptr, ptr %4, align 8
  %28 = getelementptr inbounds nuw %struct.HeapTupleFreeze, ptr %27, i32 0, i32 2
  %29 = load i16, ptr %28, align 2
  %30 = load ptr, ptr %3, align 8
  %31 = getelementptr inbounds nuw %struct.HeapTupleHeaderData, ptr %30, i32 0, i32 3
  store i16 %29, ptr %31, align 4
  %32 = load ptr, ptr %4, align 8
  %33 = getelementptr inbounds nuw %struct.HeapTupleFreeze, ptr %32, i32 0, i32 1
  %34 = load i16, ptr %33, align 4
  %35 = load ptr, ptr %3, align 8
  %36 = getelementptr inbounds nuw %struct.HeapTupleHeaderData, ptr %35, i32 0, i32 2
  store i16 %34, ptr %36, align 2
  ret void
}

; Function Attrs: inlinehint nounwind uwtable
define internal ptr @PageGetItem(ptr noundef %0, ptr noundef %1) #3 {
  %3 = alloca ptr, align 8
  %4 = alloca ptr, align 8
  store ptr %0, ptr %3, align 8
  store ptr %1, ptr %4, align 8
  %5 = load ptr, ptr %3, align 8
  %6 = load ptr, ptr %4, align 8
  %7 = load i32, ptr %6, align 4
  %8 = and i32 %7, 32767
  %9 = sext i32 %8 to i64
  %10 = getelementptr inbounds i8, ptr %5, i64 %9
  ret ptr %10
}

; Function Attrs: inlinehint nounwind uwtable
define internal ptr @PageGetItemId(ptr noundef %0, i16 noundef zeroext %1) #3 {
  %3 = alloca ptr, align 8
  %4 = alloca i16, align 2
  store ptr %0, ptr %3, align 8
  store i16 %1, ptr %4, align 2
  %5 = load ptr, ptr %3, align 8
  %6 = getelementptr inbounds nuw %struct.PageHeaderData, ptr %5, i32 0, i32 8
  %7 = load i16, ptr %4, align 2
  %8 = zext i16 %7 to i32
  %9 = sub i32 %8, 1
  %10 = sext i32 %9 to i64
  %11 = getelementptr inbounds [0 x %struct.ItemIdData], ptr %6, i64 0, i64 %10
  ret ptr %11
}

; Function Attrs: inlinehint nounwind uwtable
define internal ptr @BufferGetPage(i32 noundef %0) #3 {
  %2 = alloca i32, align 4
  store i32 %0, ptr %2, align 4
  %3 = load i32, ptr %2, align 4
  %4 = call ptr @BufferGetBlock(i32 noundef %3)
  ret ptr %4
}

; Function Attrs: nounwind uwtable
define dso_local void @heap_freeze_prepared_tuples(i32 noundef %0, ptr noundef %1, i32 noundef %2) #0 {
  %4 = alloca i32, align 4
  %5 = alloca ptr, align 8
  %6 = alloca i32, align 4
  %7 = alloca ptr, align 8
  %8 = alloca i32, align 4
  %9 = alloca ptr, align 8
  %10 = alloca ptr, align 8
  %11 = alloca ptr, align 8
  store i32 %0, ptr %4, align 4
  store ptr %1, ptr %5, align 8
  store i32 %2, ptr %6, align 4
  call void @llvm.lifetime.start.p0(i64 8, ptr %7) #10
  %12 = load i32, ptr %4, align 4
  %13 = call ptr @BufferGetPage(i32 noundef %12)
  store ptr %13, ptr %7, align 8
  call void @llvm.lifetime.start.p0(i64 4, ptr %8) #10
  store i32 0, ptr %8, align 4
  br label %14

14:                                               ; preds = %34, %3
  %15 = load i32, ptr %8, align 4
  %16 = load i32, ptr %6, align 4
  %17 = icmp slt i32 %15, %16
  br i1 %17, label %19, label %18

18:                                               ; preds = %14
  call void @llvm.lifetime.end.p0(i64 4, ptr %8) #10
  br label %37

19:                                               ; preds = %14
  call void @llvm.lifetime.start.p0(i64 8, ptr %9) #10
  %20 = load ptr, ptr %5, align 8
  %21 = load i32, ptr %8, align 4
  %22 = sext i32 %21 to i64
  %23 = getelementptr inbounds %struct.HeapTupleFreeze, ptr %20, i64 %22
  store ptr %23, ptr %9, align 8
  call void @llvm.lifetime.start.p0(i64 8, ptr %10) #10
  %24 = load ptr, ptr %7, align 8
  %25 = load ptr, ptr %9, align 8
  %26 = getelementptr inbounds nuw %struct.HeapTupleFreeze, ptr %25, i32 0, i32 5
  %27 = load i16, ptr %26, align 2
  %28 = call ptr @PageGetItemId(ptr noundef %24, i16 noundef zeroext %27)
  store ptr %28, ptr %10, align 8
  call void @llvm.lifetime.start.p0(i64 8, ptr %11) #10
  %29 = load ptr, ptr %7, align 8
  %30 = load ptr, ptr %10, align 8
  %31 = call ptr @PageGetItem(ptr noundef %29, ptr noundef %30)
  store ptr %31, ptr %11, align 8
  %32 = load ptr, ptr %11, align 8
  %33 = load ptr, ptr %9, align 8
  call void @heap_execute_freeze_tuple(ptr noundef %32, ptr noundef %33)
  call void @llvm.lifetime.end.p0(i64 8, ptr %11) #10
  call void @llvm.lifetime.end.p0(i64 8, ptr %10) #10
  call void @llvm.lifetime.end.p0(i64 8, ptr %9) #10
  br label %34

34:                                               ; preds = %19
  %35 = load i32, ptr %8, align 4
  %36 = add i32 %35, 1
  store i32 %36, ptr %8, align 4
  br label %14, !llvm.loop !28

37:                                               ; preds = %18
  call void @llvm.lifetime.end.p0(i64 8, ptr %7) #10
  ret void
}