; Function Attrs: nofree norecurse nosync nounwind memory(readwrite, inaccessiblemem: none) uwtable
define dso_local void @heap_freeze_prepared_tuples(i32 noundef %0, ptr noundef readonly captures(none) %1, i32 noundef %2) local_unnamed_addr #6 {
  %4 = icmp slt i32 %0, 0
  br i1 %4, label %5, label %11

5:                                                ; preds = %3
  %6 = load ptr, ptr @LocalBufferBlockPointers, align 8
  %7 = xor i32 %0, -1
  %8 = zext nneg i32 %7 to i64
  %9 = getelementptr inbounds nuw ptr, ptr %6, i64 %8
  %10 = load ptr, ptr %9, align 8
  br label %BufferGetPage.exit

11:                                               ; preds = %3
  %12 = load ptr, ptr @BufferBlocks, align 8
  %13 = add nsw i32 %0, -1
  %14 = sext i32 %13 to i64
  %15 = shl nsw i64 %14, 13
  %16 = getelementptr inbounds nuw i8, ptr %12, i64 %15
  br label %BufferGetPage.exit

BufferGetPage.exit:                               ; preds = %5, %11
  %.0.i.i = phi ptr [ %10, %5 ], [ %16, %11 ]
  %17 = icmp sgt i32 %2, 0
  br i1 %17, label %.lr.ph, label %._crit_edge

.lr.ph:                                           ; preds = %BufferGetPage.exit
  %18 = getelementptr inbounds nuw i8, ptr %.0.i.i, i64 24
  %wide.trip.count = zext nneg i32 %2 to i64
  br label %19

._crit_edge:                                      ; preds = %heap_execute_freeze_tuple.exit, %BufferGetPage.exit
  ret void

19:                                               ; preds = %.lr.ph, %heap_execute_freeze_tuple.exit
  %indvars.iv = phi i64 [ 0, %.lr.ph ], [ %indvars.iv.next, %heap_execute_freeze_tuple.exit ]
  %20 = getelementptr inbounds nuw %struct.HeapTupleFreeze, ptr %1, i64 %indvars.iv
  %21 = getelementptr inbounds nuw i8, ptr %20, i64 10
  %22 = load i16, ptr %21, align 2
  %23 = zext i16 %22 to i64
  %24 = add nsw i64 %23, -1
  %25 = getelementptr inbounds [0 x %struct.ItemIdData], ptr %18, i64 0, i64 %24
  %.val = load i32, ptr %25, align 4
  %26 = and i32 %.val, 32767
  %27 = zext nneg i32 %26 to i64
  %28 = getelementptr inbounds nuw i8, ptr %.0.i.i, i64 %27
  %29 = load i32, ptr %20, align 4
  %30 = getelementptr inbounds nuw i8, ptr %28, i64 4
  store i32 %29, ptr %30, align 4
  %31 = getelementptr inbounds nuw i8, ptr %20, i64 8
  %32 = load i8, ptr %31, align 4
  %33 = and i8 %32, 2
  %.not.i = icmp eq i8 %33, 0
  br i1 %.not.i, label %36, label %34

34:                                               ; preds = %19
  %35 = getelementptr inbounds nuw i8, ptr %28, i64 8
  store i32 2, ptr %35, align 4
  %.pre.i = load i8, ptr %31, align 4
  br label %36

36:                                               ; preds = %34, %19
  %37 = phi i8 [ %.pre.i, %34 ], [ %32, %19 ]
  %38 = and i8 %37, 4
  %.not10.i = icmp eq i8 %38, 0
  br i1 %.not10.i, label %heap_execute_freeze_tuple.exit, label %39

39:                                               ; preds = %36
  %40 = getelementptr inbounds nuw i8, ptr %28, i64 8
  store i32 0, ptr %40, align 4
  br label %heap_execute_freeze_tuple.exit

heap_execute_freeze_tuple.exit:                   ; preds = %36, %39
  %41 = getelementptr inbounds nuw i8, ptr %20, i64 6
  %42 = load i16, ptr %41, align 2
  %43 = getelementptr inbounds nuw i8, ptr %28, i64 20
  store i16 %42, ptr %43, align 4
  %44 = getelementptr inbounds nuw i8, ptr %20, i64 4
  %45 = load i16, ptr %44, align 4
  %46 = getelementptr inbounds nuw i8, ptr %28, i64 18
  store i16 %45, ptr %46, align 2
  %indvars.iv.next = add nuw nsw i64 %indvars.iv, 1
  %exitcond.not = icmp eq i64 %indvars.iv.next, %wide.trip.count
  br i1 %exitcond.not, label %._crit_edge, label %19, !llvm.loop !35
}